target datalayout = "e-m:e-p270:32:32-p271:32:32-p272:64:64-i64:64-i128:128-f80:128-n8:16:32:64-S128"
target triple = "x86_64-pc-linux-gnu"

%"class.net::HpackEncoder" = type <{ %"class.net::HpackHeaderTable", %"class.net::HpackOutputStream", ptr, i64, %"class.std::function", i8, i8, [6 x i8] }>
%"class.net::HpackHeaderTable" = type { ptr, %"class.std::deque", ptr, ptr, %"class.std::unordered_set", %"class.std::unordered_map", i64, i64, i64, i64, %"class.std::unique_ptr" }
%"class.std::deque" = type { %"class.std::_Deque_base" }
%"class.std::_Deque_base" = type { %"struct.std::_Deque_base<net::HpackEntry, std::allocator<net::HpackEntry>>::_Deque_impl" }
%"struct.std::_Deque_base<net::HpackEntry, std::allocator<net::HpackEntry>>::_Deque_impl" = type { %"struct.std::_Deque_base<net::HpackEntry, std::allocator<net::HpackEntry>>::_Deque_impl_data" }
%"struct.std::_Deque_base<net::HpackEntry, std::allocator<net::HpackEntry>>::_Deque_impl_data" = type { ptr, i64, %"struct.std::_Deque_iterator", %"struct.std::_Deque_iterator" }
%"struct.std::_Deque_iterator" = type { ptr, ptr, ptr, ptr }
%"class.std::unordered_set" = type { %"class.std::_Hashtable" }
%"class.std::_Hashtable" = type { ptr, i64, %"struct.std::__detail::_Hash_node_base", i64, %"struct.std::__detail::_Prime_rehash_policy", ptr }
%"struct.std::__detail::_Hash_node_base" = type { ptr }
%"struct.std::__detail::_Prime_rehash_policy" = type { float, i64 }
%"class.std::unordered_map" = type { %"class.std::_Hashtable.5" }
%"class.std::_Hashtable.5" = type { ptr, i64, %"struct.std::__detail::_Hash_node_base", i64, %"struct.std::__detail::_Prime_rehash_policy", ptr }
%"class.std::unique_ptr" = type { %"struct.std::__uniq_ptr_data" }
%"struct.std::__uniq_ptr_data" = type { %"class.std::__uniq_ptr_impl" }
%"class.std::__uniq_ptr_impl" = type { %"class.std::tuple" }
%"class.std::tuple" = type { %"struct.std::_Tuple_impl" }
%"struct.std::_Tuple_impl" = type { %"struct.std::_Head_base.21" }
%"struct.std::_Head_base.21" = type { ptr }
%"class.net::HpackOutputStream" = type { %"class.std::__cxx11::basic_string", i64 }
%"class.std::__cxx11::basic_string" = type { %"struct.std::__cxx11::basic_string<char>::_Alloc_hider", i64, %union.anon }
%"struct.std::__cxx11::basic_string<char>::_Alloc_hider" = type { ptr }
%union.anon = type { i64, [8 x i8] }
%"class.std::function" = type { %"class.std::_Function_base", ptr }
%"class.std::_Function_base" = type { %"union.std::_Any_data", ptr }
%"union.std::_Any_data" = type { %"union.std::_Nocopy_types" }
%"union.std::_Nocopy_types" = type { { i64, i64 } }
%"class.base::BasicStringPiece" = type { ptr, i64 }
%"struct.std::pair" = type { %"class.base::BasicStringPiece", %"class.base::BasicStringPiece" }

; Function Attrs: mustprogress uwtable
define void @_ZN3net12HpackEncoder11EmitLiteralERKSt4pairIN4base16BasicStringPieceINSt7__cxx1112basic_stringIcSt11char_traitsIcESaIcEEEEESA_E(ptr noundef nonnull align 8 dereferenceable(346) %0, ptr noundef nonnull align 8 dereferenceable(32) %1) #0 align 2 {
  %3 = alloca ptr, align 8
  %4 = alloca ptr, align 8
  %5 = alloca ptr, align 8
  %6 = alloca %"class.base::BasicStringPiece", align 8
  %7 = alloca %"class.base::BasicStringPiece", align 8
  %8 = alloca %"class.base::BasicStringPiece", align 8
  store ptr %0, ptr %3, align 8, !tbaa !3
  store ptr %1, ptr %4, align 8, !tbaa !71
  %9 = load ptr, ptr %3, align 8
  call void @llvm.lifetime.start.p0(i64 8, ptr %5) #14
  %10 = getelementptr inbounds nuw %"class.net::HpackEncoder", ptr %9, i32 0, i32 0
  %11 = load ptr, ptr %4, align 8, !tbaa !71
  %12 = getelementptr inbounds nuw %"struct.std::pair", ptr %11, i32 0, i32 0
  call void @llvm.memcpy.p0.p0.i64(ptr align 8 %6, ptr align 8 %12, i64 16, i1 false), !tbaa.struct !62
  %13 = getelementptr inbounds nuw { ptr, i64 }, ptr %6, i32 0, i32 0
  %14 = load ptr, ptr %13, align 8
  %15 = getelementptr inbounds nuw { ptr, i64 }, ptr %6, i32 0, i32 1
  %16 = load i64, ptr %15, align 8
  %17 = call noundef ptr @_ZN3net16HpackHeaderTable9GetByNameEN4base16BasicStringPieceINSt7__cxx1112basic_stringIcSt11char_traitsIcESaIcEEEEE(ptr noundef nonnull align 8 dereferenceable(256) %10, ptr %14, i64 %16)
  store ptr %17, ptr %5, align 8, !tbaa !65
  %18 = load ptr, ptr %5, align 8, !tbaa !65
  %19 = icmp ne ptr %18, null
  br i1 %19, label %20, label %26

20:                                               ; preds = %2
  %21 = getelementptr inbounds nuw %"class.net::HpackEncoder", ptr %9, i32 0, i32 1
  %22 = getelementptr inbounds nuw %"class.net::HpackEncoder", ptr %9, i32 0, i32 0
  %23 = load ptr, ptr %5, align 8, !tbaa !65
  %24 = call noundef i64 @_ZNK3net16HpackHeaderTable7IndexOfEPKNS_10HpackEntryE(ptr noundef nonnull align 8 dereferenceable(256) %22, ptr noundef %23)
  %25 = trunc i64 %24 to i32
  call void @_ZN3net17HpackOutputStream12AppendUint32Ej(ptr noundef nonnull align 8 dereferenceable(40) %21, i32 noundef %25)
  br label %34

26:                                               ; preds = %2
  %27 = getelementptr inbounds nuw %"class.net::HpackEncoder", ptr %9, i32 0, i32 1
  call void @_ZN3net17HpackOutputStream12AppendUint32Ej(ptr noundef nonnull align 8 dereferenceable(40) %27, i32 noundef 0)
  %28 = load ptr, ptr %4, align 8, !tbaa !71
  %29 = getelementptr inbounds nuw %"struct.std::pair", ptr %28, i32 0, i32 0
  call void @llvm.memcpy.p0.p0.i64(ptr align 8 %7, ptr align 8 %29, i64 16, i1 false), !tbaa.struct !62
  %30 = getelementptr inbounds nuw { ptr, i64 }, ptr %7, i32 0, i32 0
  %31 = load ptr, ptr %30, align 8
  %32 = getelementptr inbounds nuw { ptr, i64 }, ptr %7, i32 0, i32 1
  %33 = load i64, ptr %32, align 8
  call void @_ZN3net12HpackEncoder10EmitStringEN4base16BasicStringPieceINSt7__cxx1112basic_stringIcSt11char_traitsIcESaIcEEEEE(ptr noundef nonnull align 8 dereferenceable(346) %9, ptr %31, i64 %33)
  br label %34

34:                                               ; preds = %26, %20
  %35 = load ptr, ptr %4, align 8, !tbaa !71
  %36 = getelementptr inbounds nuw %"struct.std::pair", ptr %35, i32 0, i32 1
  call void @llvm.memcpy.p0.p0.i64(ptr align 8 %8, ptr align 8 %36, i64 16, i1 false), !tbaa.struct !62
  %37 = getelementptr inbounds nuw { ptr, i64 }, ptr %8, i32 0, i32 0
  %38 = load ptr, ptr %37, align 8
  %39 = getelementptr inbounds nuw { ptr, i64 }, ptr %8, i32 0, i32 1
  %40 = load i64, ptr %39, align 8
  call void @_ZN3net12HpackEncoder10EmitStringEN4base16BasicStringPieceINSt7__cxx1112basic_stringIcSt11char_traitsIcESaIcEEEEE(ptr noundef nonnull align 8 dereferenceable(346) %9, ptr %38, i64 %40)
  call void @llvm.lifetime.end.p0(i64 8, ptr %5) #14
  ret void
}