; Function Attrs: mustprogress uwtable
define void @_ZN3net12HpackEncoder11EmitLiteralERKSt4pairIN4base16BasicStringPieceINSt7__cxx1112basic_stringIcSt11char_traitsIcESaIcEEEEESA_E(ptr noundef nonnull align 8 dereferenceable(346) %0, ptr noundef nonnull readonly align 8 captures(none) dereferenceable(32) %1) local_unnamed_addr #0 align 2 {
  %.sroa.03.0.copyload = load ptr, ptr %1, align 8, !tbaa !72
  %.sroa.24.0..sroa_idx = getelementptr inbounds nuw i8, ptr %1, i64 8
  %.sroa.24.0.copyload = load i64, ptr %.sroa.24.0..sroa_idx, align 8, !tbaa !73
  %3 = tail call noundef ptr @_ZN3net16HpackHeaderTable9GetByNameEN4base16BasicStringPieceINSt7__cxx1112basic_stringIcSt11char_traitsIcESaIcEEEEE(ptr noundef nonnull align 8 dereferenceable(256) %0, ptr %.sroa.03.0.copyload, i64 %.sroa.24.0.copyload)
  %.not = icmp eq ptr %3, null
  %4 = getelementptr inbounds nuw i8, ptr %0, i64 256
  br i1 %.not, label %8, label %5

5:                                                ; preds = %2
  %6 = tail call noundef i64 @_ZNK3net16HpackHeaderTable7IndexOfEPKNS_10HpackEntryE(ptr noundef nonnull align 8 dereferenceable(256) %0, ptr noundef nonnull %3)
  %7 = trunc i64 %6 to i32
  tail call void @_ZN3net17HpackOutputStream12AppendUint32Ej(ptr noundef nonnull align 8 dereferenceable(40) %4, i32 noundef %7)
  br label %9

8:                                                ; preds = %2
  tail call void @_ZN3net17HpackOutputStream12AppendUint32Ej(ptr noundef nonnull align 8 dereferenceable(40) %4, i32 noundef 0)
  %.sroa.01.0.copyload = load ptr, ptr %1, align 8, !tbaa !72
  %.sroa.22.0.copyload = load i64, ptr %.sroa.24.0..sroa_idx, align 8, !tbaa !73
  tail call void @_ZN3net12HpackEncoder10EmitStringEN4base16BasicStringPieceINSt7__cxx1112basic_stringIcSt11char_traitsIcESaIcEEEEE(ptr noundef nonnull align 8 dereferenceable(346) %0, ptr %.sroa.01.0.copyload, i64 %.sroa.22.0.copyload)
  br label %9

9:                                                ; preds = %8, %5
  %10 = getelementptr inbounds nuw i8, ptr %1, i64 16
  %.sroa.0.0.copyload = load ptr, ptr %10, align 8, !tbaa !72
  %.sroa.2.0..sroa_idx = getelementptr inbounds nuw i8, ptr %1, i64 24
  %.sroa.2.0.copyload = load i64, ptr %.sroa.2.0..sroa_idx, align 8, !tbaa !73
  tail call void @_ZN3net12HpackEncoder10EmitStringEN4base16BasicStringPieceINSt7__cxx1112basic_stringIcSt11char_traitsIcESaIcEEEEE(ptr noundef nonnull align 8 dereferenceable(346) %0, ptr %.sroa.0.0.copyload, i64 %.sroa.2.0.copyload)
  ret void
}